target datalayout = "e-m:e-p270:32:32-p271:32:32-p272:64:64-i64:64-i128:128-f80:128-n8:16:32:64-S128"
target triple = "x86_64-unknown-linux-gnu"

%struct.mz_zip_archive = type { i64, i64, i32, i32, i32, i32, i64, ptr, ptr, ptr, ptr, ptr, ptr, ptr, ptr, ptr }
%struct.mz_zip_internal_state_tag = type { %struct.mz_zip_array, %struct.mz_zip_array, %struct.mz_zip_array, i32, i32, i32, ptr, i64, ptr, i64, i64 }
%struct.mz_zip_array = type { ptr, i64, i64, i32 }

; Function Attrs: nounwind uwtable
define hidden i32 @mz_zip_reader_extract_to_mem(ptr noundef %pZip, i32 noundef %file_index, ptr noundef %pBuf, i64 noundef %buf_size, i32 noundef %flags) #0 {
entry:
  %pZip.addr = alloca ptr, align 8
  %file_index.addr = alloca i32, align 4
  %pBuf.addr = alloca ptr, align 8
  %buf_size.addr = alloca i64, align 8
  %flags.addr = alloca i32, align 4
  store ptr %pZip, ptr %pZip.addr, align 8
  store i32 %file_index, ptr %file_index.addr, align 4
  store ptr %pBuf, ptr %pBuf.addr, align 8
  store i64 %buf_size, ptr %buf_size.addr, align 8
  store i32 %flags, ptr %flags.addr, align 4
  %0 = load ptr, ptr %pZip.addr, align 8
  %1 = load i32, ptr %file_index.addr, align 4
  %2 = load ptr, ptr %pBuf.addr, align 8
  %3 = load i64, ptr %buf_size.addr, align 8
  %4 = load i32, ptr %flags.addr, align 4
  %call = call i32 @mz_zip_reader_extract_to_mem_no_alloc(ptr noundef %0, i32 noundef %1, ptr noundef %2, i64 noundef %3, i32 noundef %4, ptr noundef null, i64 noundef 0)
  ret i32 %call
}

; Function Attrs: nounwind uwtable
define hidden ptr @mz_zip_reader_extract_to_heap(ptr noundef %pZip, i32 noundef %file_index, ptr noundef %pSize, i32 noundef %flags) #0 {
entry:
  %retval.i = alloca ptr, align 8
  %pZip.addr.i = alloca ptr, align 8
  %file_index.addr.i = alloca i32, align 4
  %retval = alloca ptr, align 8
  %pZip.addr = alloca ptr, align 8
  %file_index.addr = alloca i32, align 4
  %pSize.addr = alloca ptr, align 8
  %flags.addr = alloca i32, align 4
  %comp_size = alloca i64, align 8
  %uncomp_size = alloca i64, align 8
  %alloc_size = alloca i64, align 8
  %p = alloca ptr, align 8
  %pBuf = alloca ptr, align 8
  store ptr %pZip, ptr %pZip.addr, align 8
  store i32 %file_index, ptr %file_index.addr, align 4
  store ptr %pSize, ptr %pSize.addr, align 8
  store i32 %flags, ptr %flags.addr, align 4
  %0 = load ptr, ptr %pZip.addr, align 8
  %1 = load i32, ptr %file_index.addr, align 4
  store ptr %0, ptr %pZip.addr.i, align 8
  store i32 %1, ptr %file_index.addr.i, align 4
  %2 = load ptr, ptr %pZip.addr.i, align 8
  %tobool.i = icmp ne ptr %2, null
  br i1 %tobool.i, label %lor.lhs.false.i, label %if.then.i

lor.lhs.false.i:                                  ; preds = %entry
  %3 = load ptr, ptr %pZip.addr.i, align 8
  %m_pState.i = getelementptr inbounds %struct.mz_zip_archive, ptr %3, i32 0, i32 15
  %4 = load ptr, ptr %m_pState.i, align 8
  %tobool1.i = icmp ne ptr %4, null
  br i1 %tobool1.i, label %lor.lhs.false2.i, label %if.then.i

lor.lhs.false2.i:                                 ; preds = %lor.lhs.false.i
  %5 = load i32, ptr %file_index.addr.i, align 4
  %6 = load ptr, ptr %pZip.addr.i, align 8
  %m_total_files.i = getelementptr inbounds %struct.mz_zip_archive, ptr %6, i32 0, i32 2
  %7 = load i32, ptr %m_total_files.i, align 8
  %cmp.i = icmp uge i32 %5, %7
  br i1 %cmp.i, label %if.then.i, label %lor.lhs.false3.i

lor.lhs.false3.i:                                 ; preds = %lor.lhs.false2.i
  %8 = load ptr, ptr %pZip.addr.i, align 8
  %m_zip_mode.i = getelementptr inbounds %struct.mz_zip_archive, ptr %8, i32 0, i32 3
  %9 = load i32, ptr %m_zip_mode.i, align 4
  %cmp4.i = icmp ne i32 %9, 1
  br i1 %cmp4.i, label %if.then.i, label %if.end.i

if.then.i:                                        ; preds = %lor.lhs.false3.i, %lor.lhs.false2.i, %lor.lhs.false.i, %entry
  store ptr null, ptr %retval.i, align 8
  br label %mz_zip_reader_get_cdh.exit

if.end.i:                                         ; preds = %lor.lhs.false3.i
  %10 = load ptr, ptr %pZip.addr.i, align 8
  %m_pState5.i = getelementptr inbounds %struct.mz_zip_archive, ptr %10, i32 0, i32 15
  %11 = load ptr, ptr %m_pState5.i, align 8
  %12 = load ptr, ptr %11, align 8
  %13 = load ptr, ptr %pZip.addr.i, align 8
  %m_pState6.i = getelementptr inbounds %struct.mz_zip_archive, ptr %13, i32 0, i32 15
  %14 = load ptr, ptr %m_pState6.i, align 8
  %m_central_dir_offsets.i = getelementptr inbounds %struct.mz_zip_internal_state_tag, ptr %14, i32 0, i32 1
  %15 = load ptr, ptr %m_central_dir_offsets.i, align 8
  %16 = load i32, ptr %file_index.addr.i, align 4
  %idxprom.i = zext i32 %16 to i64
  %arrayidx.i = getelementptr inbounds i32, ptr %15, i64 %idxprom.i
  %17 = load i32, ptr %arrayidx.i, align 4
  %idxprom8.i = zext i32 %17 to i64
  %arrayidx9.i = getelementptr inbounds i8, ptr %12, i64 %idxprom8.i
  store ptr %arrayidx9.i, ptr %retval.i, align 8
  br label %mz_zip_reader_get_cdh.exit

mz_zip_reader_get_cdh.exit:                       ; preds = %if.end.i, %if.then.i
  %18 = load ptr, ptr %retval.i, align 8
  store ptr %18, ptr %p, align 8
  %19 = load ptr, ptr %pSize.addr, align 8
  %tobool = icmp ne ptr %19, null
  br i1 %tobool, label %if.then, label %if.end

if.then:                                          ; preds = %mz_zip_reader_get_cdh.exit
  %20 = load ptr, ptr %pSize.addr, align 8
  store i64 0, ptr %20, align 8
  br label %if.end

if.end:                                           ; preds = %if.then, %mz_zip_reader_get_cdh.exit
  %21 = load ptr, ptr %p, align 8
  %tobool1 = icmp ne ptr %21, null
  br i1 %tobool1, label %if.end3, label %if.then2

if.then2:                                         ; preds = %if.end
  store ptr null, ptr %retval, align 8
  br label %return

if.end3:                                          ; preds = %if.end
  %22 = load ptr, ptr %p, align 8
  %add.ptr = getelementptr inbounds i8, ptr %22, i64 20
  %23 = load i32, ptr %add.ptr, align 4
  %conv = zext i32 %23 to i64
  store i64 %conv, ptr %comp_size, align 8
  %24 = load ptr, ptr %p, align 8
  %add.ptr4 = getelementptr inbounds i8, ptr %24, i64 24
  %25 = load i32, ptr %add.ptr4, align 4
  %conv5 = zext i32 %25 to i64
  store i64 %conv5, ptr %uncomp_size, align 8
  %26 = load i32, ptr %flags.addr, align 4
  %and = and i32 %26, 1024
  %tobool6 = icmp ne i32 %and, 0
  br i1 %tobool6, label %cond.true, label %cond.false

cond.true:                                        ; preds = %if.end3
  %27 = load i64, ptr %comp_size, align 8
  br label %cond.end

cond.false:                                       ; preds = %if.end3
  %28 = load i64, ptr %uncomp_size, align 8
  br label %cond.end

cond.end:                                         ; preds = %cond.false, %cond.true
  %cond = phi i64 [ %27, %cond.true ], [ %28, %cond.false ]
  store i64 %cond, ptr %alloc_size, align 8
  %29 = load ptr, ptr %pZip.addr, align 8
  %m_pAlloc = getelementptr inbounds %struct.mz_zip_archive, ptr %29, i32 0, i32 7
  %30 = load ptr, ptr %m_pAlloc, align 8
  %31 = load ptr, ptr %pZip.addr, align 8
  %m_pAlloc_opaque = getelementptr inbounds %struct.mz_zip_archive, ptr %31, i32 0, i32 10
  %32 = load ptr, ptr %m_pAlloc_opaque, align 8
  %33 = load i64, ptr %alloc_size, align 8
  %call7 = call ptr %30(ptr noundef %32, i64 noundef 1, i64 noundef %33)
  store ptr %call7, ptr %pBuf, align 8
  %cmp = icmp eq ptr null, %call7
  br i1 %cmp, label %if.then9, label %if.end10

if.then9:                                         ; preds = %cond.end
  store ptr null, ptr %retval, align 8
  br label %return

if.end10:                                         ; preds = %cond.end
  %34 = load ptr, ptr %pZip.addr, align 8
  %35 = load i32, ptr %file_index.addr, align 4
  %36 = load ptr, ptr %pBuf, align 8
  %37 = load i64, ptr %alloc_size, align 8
  %38 = load i32, ptr %flags.addr, align 4
  %call11 = call i32 @mz_zip_reader_extract_to_mem(ptr noundef %34, i32 noundef %35, ptr noundef %36, i64 noundef %37, i32 noundef %38)
  %tobool12 = icmp ne i32 %call11, 0
  br i1 %tobool12, label %if.end15, label %if.then13

if.then13:                                        ; preds = %if.end10
  %39 = load ptr, ptr %pZip.addr, align 8
  %m_pFree = getelementptr inbounds %struct.mz_zip_archive, ptr %39, i32 0, i32 8
  %40 = load ptr, ptr %m_pFree, align 8
  %41 = load ptr, ptr %pZip.addr, align 8
  %m_pAlloc_opaque14 = getelementptr inbounds %struct.mz_zip_archive, ptr %41, i32 0, i32 10
  %42 = load ptr, ptr %m_pAlloc_opaque14, align 8
  %43 = load ptr, ptr %pBuf, align 8
  call void %40(ptr noundef %42, ptr noundef %43)
  store ptr null, ptr %retval, align 8
  br label %return

if.end15:                                         ; preds = %if.end10
  %44 = load ptr, ptr %pSize.addr, align 8
  %tobool16 = icmp ne ptr %44, null
  br i1 %tobool16, label %if.then17, label %if.end18

if.then17:                                        ; preds = %if.end15
  %45 = load i64, ptr %alloc_size, align 8
  %46 = load ptr, ptr %pSize.addr, align 8
  store i64 %45, ptr %46, align 8
  br label %if.end18

if.end18:                                         ; preds = %if.then17, %if.end15
  %47 = load ptr, ptr %pBuf, align 8
  store ptr %47, ptr %retval, align 8
  br label %return

return:                                           ; preds = %if.end18, %if.then13, %if.then9, %if.then2
  %48 = load ptr, ptr %retval, align 8
  ret ptr %48
}