; Function Attrs: nounwind uwtable
define hidden ptr @mz_zip_reader_extract_to_heap(ptr noundef %pZip, i32 noundef %file_index, ptr noundef writeonly %pSize, i32 noundef %flags) local_unnamed_addr #4 {
entry:
  %tobool.i.not = icmp eq ptr %pZip, null
  br i1 %tobool.i.not, label %mz_zip_reader_get_cdh.exit, label %lor.lhs.false.i

lor.lhs.false.i:                                  ; preds = %entry
  %m_pState.i = getelementptr inbounds nuw i8, ptr %pZip, i64 104
  %0 = load ptr, ptr %m_pState.i, align 8
  %tobool1.i.not = icmp eq ptr %0, null
  br i1 %tobool1.i.not, label %mz_zip_reader_get_cdh.exit, label %lor.lhs.false2.i

lor.lhs.false2.i:                                 ; preds = %lor.lhs.false.i
  %m_total_files.i = getelementptr inbounds nuw i8, ptr %pZip, i64 16
  %1 = load i32, ptr %m_total_files.i, align 8
  %cmp.i.not = icmp ult i32 %file_index, %1
  br i1 %cmp.i.not, label %lor.lhs.false3.i, label %mz_zip_reader_get_cdh.exit

lor.lhs.false3.i:                                 ; preds = %lor.lhs.false2.i
  %m_zip_mode.i = getelementptr inbounds nuw i8, ptr %pZip, i64 20
  %2 = load i32, ptr %m_zip_mode.i, align 4
  %cmp4.i.not = icmp eq i32 %2, 1
  br i1 %cmp4.i.not, label %if.end.i, label %mz_zip_reader_get_cdh.exit

if.end.i:                                         ; preds = %lor.lhs.false3.i
  %3 = load ptr, ptr %0, align 8
  %m_central_dir_offsets.i = getelementptr inbounds nuw i8, ptr %0, i64 32
  %4 = load ptr, ptr %m_central_dir_offsets.i, align 8
  %idxprom.i = zext i32 %file_index to i64
  %arrayidx.i = getelementptr inbounds nuw i32, ptr %4, i64 %idxprom.i
  %5 = load i32, ptr %arrayidx.i, align 4
  %idxprom8.i = zext i32 %5 to i64
  %arrayidx9.i = getelementptr inbounds nuw i8, ptr %3, i64 %idxprom8.i
  br label %mz_zip_reader_get_cdh.exit

mz_zip_reader_get_cdh.exit:                       ; preds = %entry, %lor.lhs.false.i, %lor.lhs.false2.i, %lor.lhs.false3.i, %if.end.i
  %retval.i.0 = phi ptr [ %arrayidx9.i, %if.end.i ], [ null, %lor.lhs.false3.i ], [ null, %lor.lhs.false2.i ], [ null, %lor.lhs.false.i ], [ null, %entry ]
  %tobool.not = icmp eq ptr %pSize, null
  br i1 %tobool.not, label %if.end, label %if.then

if.then:                                          ; preds = %mz_zip_reader_get_cdh.exit
  store i64 0, ptr %pSize, align 8
  br label %if.end

if.end:                                           ; preds = %if.then, %mz_zip_reader_get_cdh.exit
  %tobool1.not = icmp eq ptr %retval.i.0, null
  br i1 %tobool1.not, label %return, label %if.end3

if.end3:                                          ; preds = %if.end
  %add.ptr = getelementptr inbounds nuw i8, ptr %retval.i.0, i64 20
  %6 = load i32, ptr %add.ptr, align 4
  %add.ptr4 = getelementptr inbounds nuw i8, ptr %retval.i.0, i64 24
  %7 = load i32, ptr %add.ptr4, align 4
  %and = and i32 %flags, 1024
  %tobool6.not = icmp eq i32 %and, 0
  %cond.v = select i1 %tobool6.not, i32 %7, i32 %6
  %cond = zext i32 %cond.v to i64
  %m_pAlloc = getelementptr inbounds nuw i8, ptr %pZip, i64 40
  %8 = load ptr, ptr %m_pAlloc, align 8
  %m_pAlloc_opaque = getelementptr inbounds nuw i8, ptr %pZip, i64 64
  %9 = load ptr, ptr %m_pAlloc_opaque, align 8
  %call7 = tail call ptr %8(ptr noundef %9, i64 noundef 1, i64 noundef %cond) #30
  %cmp = icmp eq ptr %call7, null
  br i1 %cmp, label %return, label %if.end10

if.end10:                                         ; preds = %if.end3
  %call.i = tail call range(i32 0, 2) i32 @mz_zip_reader_extract_to_mem_no_alloc(ptr noundef nonnull %pZip, i32 noundef %file_index, ptr noundef nonnull %call7, i64 noundef %cond, i32 noundef %flags, ptr noundef null, i64 noundef 0)
  %tobool12.not = icmp eq i32 %call.i, 0
  br i1 %tobool12.not, label %if.then13, label %if.end15

if.then13:                                        ; preds = %if.end10
  %m_pFree = getelementptr inbounds nuw i8, ptr %pZip, i64 48
  %10 = load ptr, ptr %m_pFree, align 8
  %11 = load ptr, ptr %m_pAlloc_opaque, align 8
  tail call void %10(ptr noundef %11, ptr noundef nonnull %call7) #30
  br label %return

if.end15:                                         ; preds = %if.end10
  br i1 %tobool.not, label %return, label %if.then17

if.then17:                                        ; preds = %if.end15
  store i64 %cond, ptr %pSize, align 8
  br label %return

return:                                           ; preds = %if.end15, %if.then17, %if.end3, %if.end, %if.then13
  %retval.0 = phi ptr [ null, %if.then13 ], [ null, %if.end ], [ null, %if.end3 ], [ %call7, %if.then17 ], [ %call7, %if.end15 ]
  ret ptr %retval.0
}